Certificate:
    Data:
        Version: 3 (0x2)
        Serial Number:
            ad:85:35:fc:6b:9a:41:b3:e1:b7:f4:ce:39:f4:79:af
        Signature Algorithm: sha256WithRSAEncryption
        Issuer: CN=Lab CA
        Validity
            Not Before: Mar 22 14:40:37 2024 GMT
            Not After : Mar 16 14:40:37 2049 GMT
        Subject: CN=syslog
        Subject Public Key Info:
            Public Key Algorithm: rsaEncryption
                RSA Public-Key: (2048 bit)
                Modulus:
                    00:9c:a4:29:e0:18:03:d4:bd:5f:53:a8:9f:2b:90:
                    ae:cf:d8:b9:71:1b:54:e9:ea:55:14:e6:8f:4a:9d:
                    d2:ab:42:71:3d:06:d7:11:be:8d:ab:23:15:ea:14:
                    2e:d0:a6:30:0b:44:8c:1d:75:a7:b7:26:5b:c4:94:
                    b3:31:e6:ba:9f:c5:c8:16:44:7a:85:e6:85:b2:37:
                    a8:6f:89:24:23:31:e0:2a:39:ba:c4:a3:d3:18:a0:
                    ce:09:ad:51:ab:fc:ff:a9:c6:2f:f9:b2:5e:54:2e:
                    5d:11:ba:18:f5:62:cd:7b:d5:ff:bd:02:08:56:11:
                    df:03:ca:75:4f:b9:19:aa:92:37:8e:4b:ee:af:81:
                    7e:98:87:1e:90:ef:31:f7:74:8d:95:3b:e2:f6:5c:
                    b8:59:02:18:73:7f:3c:71:58:2f:ca:1f:c4:ce:20:
                    18:49:5f:70:10:9c:0a:a1:fe:35:44:b5:9f:de:86:
                    9f:2f:80:c7:77:a3:fa:95:ac:bb:ed:b2:1f:09:50:
                    e2:8a:bf:f6:8b:58:da:f9:05:f6:6c:2a:f8:dc:ef:
                    51:52:0c:56:07:a3:ff:fc:44:db:cb:7f:f5:5a:e3:
                    93:2e:a7:19:95:60:82:a2:2d:a4:f3:19:07:24:c6:
                    6f:ff:00:04:3f:10:a1:34:5a:ee:4a:8d:a8:20:06:
                    56:65
                Exponent: 65537 (0x10001)
        X509v3 extensions:
            X509v3 Basic Constraints: 
                CA:FALSE
            X509v3 Subject Key Identifier: 
                2E:87:FF:EF:F7:84:1D:C8:76:51:01:FE:36:7B:75:B5:32:D1:D4:8F
            X509v3 Authority Key Identifier: 
                keyid:1D:8F:FA:BB:8A:72:5E:D1:E8:F0:F0:62:D5:9C:BB:B0:1D:EA:0E:F5
                DirName:/CN=Lab CA
                serial:48:61:4D:17:3D:D6:CE:48:C4:7B:0B:B7:C4:7B:BD:CD:46:5E:73:97

            X509v3 Key Usage: 
                Digital Signature, Key Encipherment
            X509v3 Extended Key Usage: 
                TLS Web Server Authentication
            X509v3 Subject Alternative Name: 
                DNS:syslog, IP Address:10.0.5.14, IP Address:10.0.5.15, IP Address:10.0.5.16
    Signature Algorithm: sha256WithRSAEncryption
         83:0e:8d:43:2b:67:08:7d:77:2e:47:ff:17:55:eb:cd:53:f8:
         41:31:c2:cd:af:2a:c2:3a:53:5c:1e:eb:d1:9d:3e:f2:2f:91:
         43:af:67:f2:e8:07:e7:d3:40:73:69:91:7b:a9:ef:ca:0b:77:
         99:d0:e3:79:63:57:ac:19:a9:44:62:90:f8:3b:a7:0e:3c:8c:
         06:cc:76:6f:3e:0e:60:fe:48:f8:82:a0:20:99:56:d5:58:3f:
         69:1a:f0:44:d4:00:27:65:a4:38:0c:70:c9:67:fd:b0:59:99:
         48:67:b6:64:c1:8b:a1:b2:f1:f9:df:21:2b:db:2e:cf:fb:90:
         6a:85:90:c2:9e:2e:5a:b0:97:c7:e7:b6:0f:ab:38:c6:b5:f0:
         71:2c:e1:5d:47:87:bc:fd:b0:80:32:5a:fa:73:37:63:6b:21:
         35:c8:d0:20:65:14:10:15:f0:a2:ab:67:2f:a5:f0:06:d3:41:
         ce:89:52:2d:6a:c4:a3:23:0f:4d:39:cd:b0:0c:37:d4:7a:8e:
         16:7a:7f:b9:e2:c2:28:cf:60:2c:ac:18:a1:09:3b:25:be:ef:
         28:83:9c:ee:a9:cc:db:b3:10:71:13:71:e1:33:84:48:7a:63:
         3c:87:fe:40:bc:c4:d9:b7:b9:55:fa:11:10:d0:a1:f6:d2:4d:
         bd:44:f6:c3
-----BEGIN CERTIFICATE-----
MIIDcDCCAligAwIBAgIRAK2FNfxrmkGz4bf0zjn0ea8wDQYJKoZIhvcNAQELBQAw
ETEPMA0GA1UEAwwGTGFiIENBMB4XDTI0MDMyMjE0NDAzN1oXDTQ5MDMxNjE0NDAz
N1owETEPMA0GA1UEAwwGc3lzbG9nMIIBIjANBgkqhkiG9w0BAQEFAAOCAQ8AMIIB
CgKCAQEAnKQp4BgD1L1fU6ifK5Cuz9i5cRtU6epVFOaPSp3Sq0JxPQbXEb6NqyMV
6hQu0KYwC0SMHXWntyZbxJSzMea6n8XIFkR6heaFsjeob4kkIzHgKjm6xKPTGKDO
Ca1Rq/z/qcYv+bJeVC5dEboY9WLNe9X/vQIIVhHfA8p1T7kZqpI3jkvur4F+mIce
kO8x93SNlTvi9ly4WQIYc388cVgvyh/EziAYSV9wEJwKof41RLWf3oafL4DHd6P6
lay77bIfCVDiir/2i1ja+QX2bCr43O9RUgxWB6P//ETby3/1WuOTLqcZlWCCoi2k
8xkHJMZv/wAEPxChNFruSo2oIAZWZQIDAQABo4HCMIG/MAkGA1UdEwQCMAAwHQYD
VR0OBBYEFC6H/+/3hB3IdlEB/jZ7dbUy0dSPMEwGA1UdIwRFMEOAFB2P+ruKcl7R
6PDwYtWcu7Ad6g71oRWkEzARMQ8wDQYDVQQDDAZMYWIgQ0GCFEhhTRc91s5IxHsL
t8R7vc1GXnOXMAsGA1UdDwQEAwIFoDATBgNVHSUEDDAKBggrBgEFBQcDATAjBgNV
HREEHDAaggZzeXNsb2eHBAoABQ6HBAoABQ+HBAoABRAwDQYJKoZIhvcNAQELBQAD
ggEBAIMOjUMrZwh9dy5H/xdV681T+EExws2vKsI6U1we69GdPvIvkUOvZ/LoB+fT
QHNpkXup78oLd5nQ43ljV6wZqURikPg7pw48jAbMdm8+DmD+SPiCoCCZVtVYP2ka
8ETUACdlpDgMcMln/bBZmUhntmTBi6Gy8fnfISvbLs/7kGqFkMKeLlqwl8fntg+r
OMa18HEs4V1Hh7z9sIAyWvpzN2NrITXI0CBlFBAV8KKrZy+l8AbTQc6JUi1qxKMj
D005zbAMN9R6jhZ6f7niwijPYCysGKEJOyW+7yiDnO6pzNuzEHETceEzhEh6YzyH
/kC8xNm3uVX6ERDQofbSTb1E9sM=
-----END CERTIFICATE-----
